target datalayout = "e-m:e-p270:32:32-p271:32:32-p272:64:64-i64:64-i128:128-f80:128-n8:16:32:64-S128"
target triple = "x86_64-pc-linux-gnu"

%struct.AVProbeData = type { ptr, ptr, i32, ptr }
%struct.AVFormatContext = type { ptr, ptr, ptr, ptr, ptr, i32, i32, ptr, i32, ptr, i32, ptr, ptr, i64, i64, i64, i32, i32, i32, i64, i64, ptr, i32, i32, ptr, i32, i32, i32, i32, ptr, i64, i32, i32, %struct.AVIOInterruptCB, i32, i32, i32, i32, i64, i32, i32, i32, i32, i32, i32, i32, i32, i32, i32, i32, i32, i64, i32, i32, i32, i32, i32, ptr, ptr, ptr, ptr, i32, ptr, ptr, ptr, ptr, i32, ptr, ptr, i64, ptr, ptr, ptr, i64 }
%struct.AVIOInterruptCB = type { ptr, ptr }
%struct.AVStream = type { ptr, i32, i32, ptr, ptr, %struct.AVRational, i64, i64, i64, i32, i32, %struct.AVRational, ptr, %struct.AVRational, %struct.AVPacket, i32, %struct.AVRational, i32 }
%struct.AVPacket = type { ptr, i64, i64, ptr, i32, i32, i32, ptr, i32, i64, i64, ptr, ptr, %struct.AVRational }
%struct.AVRational = type { i32, i32 }
%struct.AVCodecParameters = type { i32, i32, i32, ptr, i32, ptr, i32, i32, i64, i32, i32, i32, i32, i32, i32, %struct.AVRational, %struct.AVRational, i32, i32, i32, i32, i32, i32, i32, %struct.AVChannelLayout, i32, i32, i32, i32, i32, i32 }
%struct.AVChannelLayout = type { i32, i32, %union.anon, ptr }
%union.anon = type { i64 }

@.str = private unnamed_addr constant [5 x i8] c"svag\00", align 1
@.str.1 = private unnamed_addr constant [16 x i8] c"Konami PS2 SVAG\00", align 1
@ff_svag_demuxer = constant { { ptr, ptr, i32, [4 x i8], ptr, ptr, ptr, ptr }, i32, i32, i32, [4 x i8], ptr, ptr, ptr, ptr, ptr, ptr, ptr, ptr, ptr, ptr } { { ptr, ptr, i32, [4 x i8], ptr, ptr, ptr, ptr } { ptr @.str, ptr @.str.1, i32 0, [4 x i8] zeroinitializer, ptr @.str, ptr null, ptr null, ptr null }, i32 0, i32 0, i32 0, [4 x i8] zeroinitializer, ptr @svag_probe, ptr @svag_read_header, ptr @svag_read_packet, ptr null, ptr null, ptr null, ptr null, ptr null, ptr null, ptr null }, align 8
@.str.2 = private unnamed_addr constant [5 x i8] c"Svag\00", align 1

; Function Attrs: nounwind uwtable
define internal i32 @svag_probe(ptr noundef %0) #0 {
  %2 = alloca i32, align 4
  %3 = alloca ptr, align 8
  store ptr %0, ptr %3, align 8, !tbaa !4
  %4 = load ptr, ptr %3, align 8, !tbaa !4
  %5 = getelementptr inbounds nuw %struct.AVProbeData, ptr %4, i32 0, i32 1
  %6 = load ptr, ptr %5, align 8, !tbaa !9
  %7 = call i32 @memcmp(ptr noundef %6, ptr noundef @.str.2, i64 noundef 4) #5
  %8 = icmp ne i32 %7, 0
  br i1 %8, label %9, label %10

9:                                                ; preds = %1
  store i32 0, ptr %2, align 4
  br label %11

10:                                               ; preds = %1
  store i32 100, ptr %2, align 4
  br label %11

11:                                               ; preds = %10, %9
  %12 = load i32, ptr %2, align 4
  ret i32 %12
}

; Function Attrs: nounwind uwtable
define internal i32 @svag_read_header(ptr noundef %0) #0 {
  %2 = alloca i32, align 4
  %3 = alloca ptr, align 8
  %4 = alloca i32, align 4
  %5 = alloca i32, align 4
  %6 = alloca ptr, align 8
  %7 = alloca i32, align 4
  store ptr %0, ptr %3, align 8, !tbaa !13
  call void @llvm.lifetime.start.p0(i64 4, ptr %4) #6
  call void @llvm.lifetime.start.p0(i64 4, ptr %5) #6
  call void @llvm.lifetime.start.p0(i64 8, ptr %6) #6
  %8 = load ptr, ptr %3, align 8, !tbaa !13
  %9 = getelementptr inbounds nuw %struct.AVFormatContext, ptr %8, i32 0, i32 4
  %10 = load ptr, ptr %9, align 8, !tbaa !15
  %11 = call i64 @avio_skip(ptr noundef %10, i64 noundef 4)
  %12 = load ptr, ptr %3, align 8, !tbaa !13
  %13 = call ptr @avformat_new_stream(ptr noundef %12, ptr noundef null)
  store ptr %13, ptr %6, align 8, !tbaa !30
  %14 = load ptr, ptr %6, align 8, !tbaa !30
  %15 = icmp ne ptr %14, null
  br i1 %15, label %17, label %16

16:                                               ; preds = %1
  store i32 -12, ptr %2, align 4
  store i32 1, ptr %7, align 4
  br label %130

17:                                               ; preds = %1
  %18 = load ptr, ptr %3, align 8, !tbaa !13
  %19 = getelementptr inbounds nuw %struct.AVFormatContext, ptr %18, i32 0, i32 4
  %20 = load ptr, ptr %19, align 8, !tbaa !15
  %21 = call i32 @avio_rl32(ptr noundef %20)
  store i32 %21, ptr %4, align 4, !tbaa !32
  %22 = load ptr, ptr %6, align 8, !tbaa !30
  %23 = getelementptr inbounds nuw %struct.AVStream, ptr %22, i32 0, i32 3
  %24 = load ptr, ptr %23, align 8, !tbaa !33
  %25 = getelementptr inbounds nuw %struct.AVCodecParameters, ptr %24, i32 0, i32 0
  store i32 1, ptr %25, align 8, !tbaa !40
  %26 = load ptr, ptr %6, align 8, !tbaa !30
  %27 = getelementptr inbounds nuw %struct.AVStream, ptr %26, i32 0, i32 3
  %28 = load ptr, ptr %27, align 8, !tbaa !33
  %29 = getelementptr inbounds nuw %struct.AVCodecParameters, ptr %28, i32 0, i32 1
  store i32 69669, ptr %29, align 4, !tbaa !43
  %30 = load ptr, ptr %3, align 8, !tbaa !13
  %31 = getelementptr inbounds nuw %struct.AVFormatContext, ptr %30, i32 0, i32 4
  %32 = load ptr, ptr %31, align 8, !tbaa !15
  %33 = call i32 @avio_rl32(ptr noundef %32)
  %34 = load ptr, ptr %6, align 8, !tbaa !30
  %35 = getelementptr inbounds nuw %struct.AVStream, ptr %34, i32 0, i32 3
  %36 = load ptr, ptr %35, align 8, !tbaa !33
  %37 = getelementptr inbounds nuw %struct.AVCodecParameters, ptr %36, i32 0, i32 25
  store i32 %33, ptr %37, align 8, !tbaa !44
  %38 = load ptr, ptr %6, align 8, !tbaa !30
  %39 = getelementptr inbounds nuw %struct.AVStream, ptr %38, i32 0, i32 3
  %40 = load ptr, ptr %39, align 8, !tbaa !33
  %41 = getelementptr inbounds nuw %struct.AVCodecParameters, ptr %40, i32 0, i32 25
  %42 = load i32, ptr %41, align 8, !tbaa !44
  %43 = icmp sle i32 %42, 0
  br i1 %43, label %44, label %45

44:                                               ; preds = %17
  store i32 -1094995529, ptr %2, align 4
  store i32 1, ptr %7, align 4
  br label %130

45:                                               ; preds = %17
  %46 = load ptr, ptr %3, align 8, !tbaa !13
  %47 = getelementptr inbounds nuw %struct.AVFormatContext, ptr %46, i32 0, i32 4
  %48 = load ptr, ptr %47, align 8, !tbaa !15
  %49 = call i32 @avio_rl32(ptr noundef %48)
  %50 = load ptr, ptr %6, align 8, !tbaa !30
  %51 = getelementptr inbounds nuw %struct.AVStream, ptr %50, i32 0, i32 3
  %52 = load ptr, ptr %51, align 8, !tbaa !33
  %53 = getelementptr inbounds nuw %struct.AVCodecParameters, ptr %52, i32 0, i32 24
  %54 = getelementptr inbounds nuw %struct.AVChannelLayout, ptr %53, i32 0, i32 1
  store i32 %49, ptr %54, align 4, !tbaa !45
  %55 = load ptr, ptr %6, align 8, !tbaa !30
  %56 = getelementptr inbounds nuw %struct.AVStream, ptr %55, i32 0, i32 3
  %57 = load ptr, ptr %56, align 8, !tbaa !33
  %58 = getelementptr inbounds nuw %struct.AVCodecParameters, ptr %57, i32 0, i32 24
  %59 = getelementptr inbounds nuw %struct.AVChannelLayout, ptr %58, i32 0, i32 1
  %60 = load i32, ptr %59, align 4, !tbaa !45
  %61 = icmp sle i32 %60, 0
  br i1 %61, label %70, label %62

62:                                               ; preds = %45
  %63 = load ptr, ptr %6, align 8, !tbaa !30
  %64 = getelementptr inbounds nuw %struct.AVStream, ptr %63, i32 0, i32 3
  %65 = load ptr, ptr %64, align 8, !tbaa !33
  %66 = getelementptr inbounds nuw %struct.AVCodecParameters, ptr %65, i32 0, i32 24
  %67 = getelementptr inbounds nuw %struct.AVChannelLayout, ptr %66, i32 0, i32 1
  %68 = load i32, ptr %67, align 4, !tbaa !45
  %69 = icmp sgt i32 %68, 8
  br i1 %69, label %70, label %71

70:                                               ; preds = %62, %45
  store i32 -1094995529, ptr %2, align 4
  store i32 1, ptr %7, align 4
  br label %130

71:                                               ; preds = %62
  %72 = load i32, ptr %4, align 4, !tbaa !32
  %73 = load ptr, ptr %6, align 8, !tbaa !30
  %74 = getelementptr inbounds nuw %struct.AVStream, ptr %73, i32 0, i32 3
  %75 = load ptr, ptr %74, align 8, !tbaa !33
  %76 = getelementptr inbounds nuw %struct.AVCodecParameters, ptr %75, i32 0, i32 24
  %77 = getelementptr inbounds nuw %struct.AVChannelLayout, ptr %76, i32 0, i32 1
  %78 = load i32, ptr %77, align 4, !tbaa !45
  %79 = mul nsw i32 16, %78
  %80 = udiv i32 %72, %79
  %81 = mul i32 %80, 28
  %82 = zext i32 %81 to i64
  %83 = load ptr, ptr %6, align 8, !tbaa !30
  %84 = getelementptr inbounds nuw %struct.AVStream, ptr %83, i32 0, i32 7
  store i64 %82, ptr %84, align 8, !tbaa !46
  %85 = load ptr, ptr %3, align 8, !tbaa !13
  %86 = getelementptr inbounds nuw %struct.AVFormatContext, ptr %85, i32 0, i32 4
  %87 = load ptr, ptr %86, align 8, !tbaa !15
  %88 = call i32 @avio_rl32(ptr noundef %87)
  store i32 %88, ptr %5, align 4, !tbaa !32
  %89 = load i32, ptr %5, align 4, !tbaa !32
  %90 = icmp ule i32 %89, 0
  br i1 %90, label %101, label %91

91:                                               ; preds = %71
  %92 = load i32, ptr %5, align 4, !tbaa !32
  %93 = load ptr, ptr %6, align 8, !tbaa !30
  %94 = getelementptr inbounds nuw %struct.AVStream, ptr %93, i32 0, i32 3
  %95 = load ptr, ptr %94, align 8, !tbaa !33
  %96 = getelementptr inbounds nuw %struct.AVCodecParameters, ptr %95, i32 0, i32 24
  %97 = getelementptr inbounds nuw %struct.AVChannelLayout, ptr %96, i32 0, i32 1
  %98 = load i32, ptr %97, align 4, !tbaa !45
  %99 = sdiv i32 2147483647, %98
  %100 = icmp ugt i32 %92, %99
  br i1 %100, label %101, label %102

101:                                              ; preds = %91, %71
  store i32 -1094995529, ptr %2, align 4
  store i32 1, ptr %7, align 4
  br label %130

102:                                              ; preds = %91
  %103 = load i32, ptr %5, align 4, !tbaa !32
  %104 = load ptr, ptr %6, align 8, !tbaa !30
  %105 = getelementptr inbounds nuw %struct.AVStream, ptr %104, i32 0, i32 3
  %106 = load ptr, ptr %105, align 8, !tbaa !33
  %107 = getelementptr inbounds nuw %struct.AVCodecParameters, ptr %106, i32 0, i32 24
  %108 = getelementptr inbounds nuw %struct.AVChannelLayout, ptr %107, i32 0, i32 1
  %109 = load i32, ptr %108, align 4, !tbaa !45
  %110 = mul i32 %103, %109
  %111 = load ptr, ptr %6, align 8, !tbaa !30
  %112 = getelementptr inbounds nuw %struct.AVStream, ptr %111, i32 0, i32 3
  %113 = load ptr, ptr %112, align 8, !tbaa !33
  %114 = getelementptr inbounds nuw %struct.AVCodecParameters, ptr %113, i32 0, i32 26
  store i32 %110, ptr %114, align 4, !tbaa !47
  %115 = load ptr, ptr %3, align 8, !tbaa !13
  %116 = getelementptr inbounds nuw %struct.AVFormatContext, ptr %115, i32 0, i32 4
  %117 = load ptr, ptr %116, align 8, !tbaa !15
  %118 = load ptr, ptr %3, align 8, !tbaa !13
  %119 = getelementptr inbounds nuw %struct.AVFormatContext, ptr %118, i32 0, i32 4
  %120 = load ptr, ptr %119, align 8, !tbaa !15
  %121 = call i64 @avio_tell(ptr noundef %120)
  %122 = sub nsw i64 2048, %121
  %123 = call i64 @avio_skip(ptr noundef %117, i64 noundef %122)
  %124 = load ptr, ptr %6, align 8, !tbaa !30
  %125 = load ptr, ptr %6, align 8, !tbaa !30
  %126 = getelementptr inbounds nuw %struct.AVStream, ptr %125, i32 0, i32 3
  %127 = load ptr, ptr %126, align 8, !tbaa !33
  %128 = getelementptr inbounds nuw %struct.AVCodecParameters, ptr %127, i32 0, i32 25
  %129 = load i32, ptr %128, align 8, !tbaa !44
  call void @avpriv_set_pts_info(ptr noundef %124, i32 noundef 64, i32 noundef 1, i32 noundef %129)
  store i32 0, ptr %2, align 4
  store i32 1, ptr %7, align 4
  br label %130

130:                                              ; preds = %102, %101, %70, %44, %16
  call void @llvm.lifetime.end.p0(i64 8, ptr %6) #6
  call void @llvm.lifetime.end.p0(i64 4, ptr %5) #6
  call void @llvm.lifetime.end.p0(i64 4, ptr %4) #6
  %131 = load i32, ptr %2, align 4
  ret i32 %131
}

; Function Attrs: nounwind uwtable
define internal i32 @svag_read_packet(ptr noundef %0, ptr noundef %1) #0 {
  %3 = alloca ptr, align 8
  %4 = alloca ptr, align 8
  %5 = alloca ptr, align 8
  store ptr %0, ptr %3, align 8, !tbaa !13
  store ptr %1, ptr %4, align 8, !tbaa !48
  call void @llvm.lifetime.start.p0(i64 8, ptr %5) #6
  %6 = load ptr, ptr %3, align 8, !tbaa !13
  %7 = getelementptr inbounds nuw %struct.AVFormatContext, ptr %6, i32 0, i32 7
  %8 = load ptr, ptr %7, align 8, !tbaa !50
  %9 = getelementptr inbounds ptr, ptr %8, i64 0
  %10 = load ptr, ptr %9, align 8, !tbaa !30
  %11 = getelementptr inbounds nuw %struct.AVStream, ptr %10, i32 0, i32 3
  %12 = load ptr, ptr %11, align 8, !tbaa !33
  store ptr %12, ptr %5, align 8, !tbaa !51
  %13 = load ptr, ptr %3, align 8, !tbaa !13
  %14 = getelementptr inbounds nuw %struct.AVFormatContext, ptr %13, i32 0, i32 4
  %15 = load ptr, ptr %14, align 8, !tbaa !15
  %16 = load ptr, ptr %4, align 8, !tbaa !48
  %17 = load ptr, ptr %5, align 8, !tbaa !51
  %18 = getelementptr inbounds nuw %struct.AVCodecParameters, ptr %17, i32 0, i32 26
  %19 = load i32, ptr %18, align 4, !tbaa !47
  %20 = call i32 @av_get_packet(ptr noundef %15, ptr noundef %16, i32 noundef %19)
  call void @llvm.lifetime.end.p0(i64 8, ptr %5) #6
  ret i32 %20
}

; Function Attrs: nounwind willreturn memory(read)
declare i32 @memcmp(ptr noundef, ptr noundef, i64 noundef) #1

; Function Attrs: nocallback nofree nosync nounwind willreturn memory(argmem: readwrite)
declare void @llvm.lifetime.start.p0(i64 immarg, ptr captures(none)) #2

declare i64 @avio_skip(ptr noundef, i64 noundef) #3

declare ptr @avformat_new_stream(ptr noundef, ptr noundef) #3

declare i32 @avio_rl32(ptr noundef) #3

; Function Attrs: alwaysinline nounwind uwtable
define internal i64 @avio_tell(ptr noundef %0) #4 {
  %2 = alloca ptr, align 8
  store ptr %0, ptr %2, align 8, !tbaa !52
  %3 = load ptr, ptr %2, align 8, !tbaa !52
  %4 = call i64 @avio_seek(ptr noundef %3, i64 noundef 0, i32 noundef 1)
  ret i64 %4
}

declare void @avpriv_set_pts_info(ptr noundef, i32 noundef, i32 noundef, i32 noundef) #3

; Function Attrs: nocallback nofree nosync nounwind willreturn memory(argmem: readwrite)
declare void @llvm.lifetime.end.p0(i64 immarg, ptr captures(none)) #2

declare i64 @avio_seek(ptr noundef, i64 noundef, i32 noundef) #3

declare i32 @av_get_packet(ptr noundef, ptr noundef, i32 noundef) #3


!llvm.module.flags = !{!0, !1, !2, !3}

!0 = !{i32 1, !"wchar_size", i32 4}
!1 = !{i32 8, !"PIC Level", i32 2}
!2 = !{i32 7, !"uwtable", i32 2}
!3 = !{i32 1, !"override-stack-alignment", i32 16}
!4 = !{!5, !5, i64 0}
!5 = !{!"p1 _ZTS11AVProbeData", !6, i64 0}
!6 = !{!"any pointer", !7, i64 0}
!7 = !{!"omnipotent char", !8, i64 0}
!8 = !{!"Simple C/C++ TBAA"}
!9 = !{!10, !11, i64 8}
!10 = !{!"AVProbeData", !11, i64 0, !11, i64 8, !12, i64 16, !11, i64 24}
!11 = !{!"p1 omnipotent char", !6, i64 0}
!12 = !{!"int", !7, i64 0}
!13 = !{!14, !14, i64 0}
!14 = !{!"p1 _ZTS15AVFormatContext", !6, i64 0}
!15 = !{!16, !20, i64 32}
!16 = !{!"AVFormatContext", !17, i64 0, !18, i64 8, !19, i64 16, !6, i64 24, !20, i64 32, !12, i64 40, !12, i64 44, !21, i64 48, !12, i64 56, !23, i64 64, !12, i64 72, !24, i64 80, !11, i64 88, !25, i64 96, !25, i64 104, !25, i64 112, !12, i64 120, !12, i64 124, !12, i64 128, !25, i64 136, !25, i64 144, !11, i64 152, !12, i64 160, !12, i64 164, !26, i64 168, !12, i64 176, !12, i64 180, !12, i64 184, !12, i64 188, !27, i64 192, !25, i64 200, !12, i64 208, !12, i64 212, !28, i64 216, !12, i64 232, !12, i64 236, !12, i64 240, !12, i64 244, !25, i64 248, !12, i64 256, !12, i64 260, !12, i64 264, !12, i64 268, !12, i64 272, !12, i64 276, !12, i64 280, !12, i64 284, !12, i64 288, !12, i64 292, !12, i64 296, !12, i64 300, !25, i64 304, !12, i64 312, !12, i64 316, !12, i64 320, !12, i64 324, !12, i64 328, !11, i64 336, !11, i64 344, !11, i64 352, !11, i64 360, !12, i64 368, !29, i64 376, !29, i64 384, !29, i64 392, !29, i64 400, !12, i64 408, !6, i64 416, !6, i64 424, !25, i64 432, !11, i64 440, !6, i64 448, !6, i64 456, !25, i64 464}
!17 = !{!"p1 _ZTS7AVClass", !6, i64 0}
!18 = !{!"p1 _ZTS13AVInputFormat", !6, i64 0}
!19 = !{!"p1 _ZTS14AVOutputFormat", !6, i64 0}
!20 = !{!"p1 _ZTS11AVIOContext", !6, i64 0}
!21 = !{!"p2 _ZTS8AVStream", !22, i64 0}
!22 = !{!"any p2 pointer", !6, i64 0}
!23 = !{!"p2 _ZTS13AVStreamGroup", !22, i64 0}
!24 = !{!"p2 _ZTS9AVChapter", !22, i64 0}
!25 = !{!"long", !7, i64 0}
!26 = !{!"p2 _ZTS9AVProgram", !22, i64 0}
!27 = !{!"p1 _ZTS12AVDictionary", !6, i64 0}
!28 = !{!"AVIOInterruptCB", !6, i64 0, !6, i64 8}
!29 = !{!"p1 _ZTS7AVCodec", !6, i64 0}
!30 = !{!31, !31, i64 0}
!31 = !{!"p1 _ZTS8AVStream", !6, i64 0}
!32 = !{!12, !12, i64 0}
!33 = !{!34, !35, i64 16}
!34 = !{!"AVStream", !17, i64 0, !12, i64 8, !12, i64 12, !35, i64 16, !6, i64 24, !36, i64 32, !25, i64 40, !25, i64 48, !25, i64 56, !12, i64 64, !12, i64 68, !36, i64 72, !27, i64 80, !36, i64 88, !37, i64 96, !12, i64 200, !36, i64 204, !12, i64 212}
!35 = !{!"p1 _ZTS17AVCodecParameters", !6, i64 0}
!36 = !{!"AVRational", !12, i64 0, !12, i64 4}
!37 = !{!"AVPacket", !38, i64 0, !25, i64 8, !25, i64 16, !11, i64 24, !12, i64 32, !12, i64 36, !12, i64 40, !39, i64 48, !12, i64 56, !25, i64 64, !25, i64 72, !6, i64 80, !38, i64 88, !36, i64 96}
!38 = !{!"p1 _ZTS11AVBufferRef", !6, i64 0}
!39 = !{!"p1 _ZTS16AVPacketSideData", !6, i64 0}
!40 = !{!41, !12, i64 0}
!41 = !{!"AVCodecParameters", !12, i64 0, !12, i64 4, !12, i64 8, !11, i64 16, !12, i64 24, !39, i64 32, !12, i64 40, !12, i64 44, !25, i64 48, !12, i64 56, !12, i64 60, !12, i64 64, !12, i64 68, !12, i64 72, !12, i64 76, !36, i64 80, !36, i64 88, !12, i64 96, !12, i64 100, !12, i64 104, !12, i64 108, !12, i64 112, !12, i64 116, !12, i64 120, !42, i64 128, !12, i64 152, !12, i64 156, !12, i64 160, !12, i64 164, !12, i64 168, !12, i64 172}
!42 = !{!"AVChannelLayout", !12, i64 0, !12, i64 4, !7, i64 8, !6, i64 16}
!43 = !{!41, !12, i64 4}
!44 = !{!41, !12, i64 152}
!45 = !{!41, !12, i64 132}
!46 = !{!34, !25, i64 48}
!47 = !{!41, !12, i64 156}
!48 = !{!49, !49, i64 0}
!49 = !{!"p1 _ZTS8AVPacket", !6, i64 0}
!50 = !{!16, !21, i64 48}
!51 = !{!35, !35, i64 0}
!52 = !{!20, !20, i64 0}
